; Function Attrs: nounwind uwtable
define internal range(i32 -1, 1) i32 @gitdiff_newmode(ptr noundef readonly captures(none) %0, ptr noundef %1, ptr noundef writeonly captures(none) initializes((28, 32)) %2) #0 {
  %4 = alloca ptr, align 8
  %5 = getelementptr inbounds nuw i8, ptr %0, i64 8
  %6 = load i32, ptr %5, align 8, !tbaa !77
  %7 = getelementptr inbounds nuw i8, ptr %2, i64 28
  call void @llvm.lifetime.start.p0(i64 8, ptr nonnull %4) #21
  %8 = call i64 @strtoul(ptr noundef %1, ptr noundef nonnull %4, i32 noundef 8) #21
  %9 = trunc i64 %8 to i32
  store i32 %9, ptr %7, align 4, !tbaa !34
  %10 = load ptr, ptr %4, align 8, !tbaa !32
  %11 = icmp eq ptr %10, %1
  br i1 %11, label %18, label %12

12:                                               ; preds = %3
  %13 = load i8, ptr %10, align 1, !tbaa !53
  %14 = zext i8 %13 to i64
  %15 = getelementptr inbounds nuw [256 x i8], ptr @sane_ctype, i64 0, i64 %14
  %16 = load i8, ptr %15, align 1, !tbaa !53
  %17 = and i8 %16, 1
  %.not.i = icmp eq i8 %17, 0
  br i1 %.not.i, label %18, label %23

18:                                               ; preds = %12, %3
  %19 = load i32, ptr @git_gettext_enabled, align 4, !tbaa !34
  %.not4.i.i = icmp eq i32 %19, 0
  br i1 %.not4.i.i, label %_.exit.i, label %20

20:                                               ; preds = %18
  %21 = tail call ptr @dcgettext(ptr noundef null, ptr noundef nonnull @.str.131, i32 noundef 5) #21
  br label %_.exit.i

_.exit.i:                                         ; preds = %20, %18
  %.0.i.i = phi ptr [ %21, %20 ], [ @.str.131, %18 ]
  %22 = tail call i32 (ptr, ...) @error(ptr noundef %.0.i.i, i32 noundef %6, ptr noundef %1) #21
  br label %parse_mode_line.exit

23:                                               ; preds = %12
  %24 = trunc i64 %8 to i16
  %trunc.i.i = and i16 %24, -4096
  switch i16 %trunc.i.i, label %29 [
    i16 -32768, label %25
    i16 -24576, label %canon_mode.exit.i
    i16 16384, label %28
  ]

25:                                               ; preds = %23
  %26 = and i32 %9, 64
  %.not.i.i = icmp eq i32 %26, 0
  %27 = select i1 %.not.i.i, i32 33188, i32 33261
  br label %canon_mode.exit.i

28:                                               ; preds = %23
  br label %canon_mode.exit.i

29:                                               ; preds = %23
  br label %canon_mode.exit.i

canon_mode.exit.i:                                ; preds = %29, %28, %25, %23
  %.0.i8.i = phi i32 [ %27, %25 ], [ 16384, %28 ], [ 57344, %29 ], [ 40960, %23 ]
  store i32 %.0.i8.i, ptr %7, align 4, !tbaa !34
  br label %parse_mode_line.exit

parse_mode_line.exit:                             ; preds = %_.exit.i, %canon_mode.exit.i
  %.0.i = phi i32 [ -1, %_.exit.i ], [ 0, %canon_mode.exit.i ]
  call void @llvm.lifetime.end.p0(i64 8, ptr nonnull %4) #21
  ret i32 %.0.i
}